target datalayout = "e-m:e-p270:32:32-p271:32:32-p272:64:64-i64:64-i128:128-f80:128-n8:16:32:64-S128"
target triple = "x86_64-pc-linux-gnu"

%struct.ma_bpf_config = type { i32, i32, i32, double, i32 }
%struct.ma_bpf = type { i32, i32, i32, ptr, ptr, i32 }
%struct.ma_node_config = type { ptr, i32, i32, i32, ptr, ptr }
%struct.ma_node_base = type { ptr, ptr, ptr, i16, i16, i16, i16, i32, [2 x i64], i64, i32, i32, ptr, ptr, [2 x %struct.ma_node_input_bus], [2 x %struct.ma_node_output_bus], ptr, i32 }
%struct.ma_node_input_bus = type { %struct.ma_node_output_bus, i32, i32, i8 }
%struct.ma_node_output_bus = type { ptr, i8, i8, i8, i32, i32, i32, i32, float, ptr, ptr, ptr }
%struct.ma_bpf_node_config = type { %struct.ma_node_config, %struct.ma_bpf_config }
%struct.ma_bpf_node = type { %struct.ma_node_base, %struct.ma_bpf }

@g_ma_bpf_node_vtable = internal global { ptr, ptr, i8, i8, [2 x i8], i32 } { ptr @ma_bpf_node_process_pcm_frames, ptr null, i8 1, i8 1, [2 x i8] zeroinitializer, i32 0 }, align 8

; Function Attrs: nounwind uwtable
define void @ma_node_config_init(ptr dead_on_unwind noalias writable sret(%struct.ma_node_config) align 8 %0) #0 {
  call void @ma_zero_memory_default(ptr noundef %0, i64 noundef 40)
  %2 = getelementptr inbounds nuw %struct.ma_node_config, ptr %0, i32 0, i32 1
  store i32 0, ptr %2, align 8, !tbaa !1311
  %3 = getelementptr inbounds nuw %struct.ma_node_config, ptr %0, i32 0, i32 2
  store i32 255, ptr %3, align 4, !tbaa !1312
  %4 = getelementptr inbounds nuw %struct.ma_node_config, ptr %0, i32 0, i32 3
  store i32 255, ptr %4, align 8, !tbaa !1313
  ret void
}

; Function Attrs: alwaysinline nounwind uwtable
define internal void @ma_zero_memory_default(ptr noundef %0, i64 noundef %1) #7 {
  %3 = alloca ptr, align 8
  %4 = alloca i64, align 8
  store ptr %0, ptr %3, align 8, !tbaa !25
  store i64 %1, ptr %4, align 8, !tbaa !12
  %5 = load ptr, ptr %3, align 8, !tbaa !25
  %6 = icmp eq ptr %5, null
  br i1 %6, label %7, label %8

7:                                                ; preds = %2
  br label %14

8:                                                ; preds = %2
  %9 = load i64, ptr %4, align 8, !tbaa !12
  %10 = icmp ugt i64 %9, 0
  br i1 %10, label %11, label %14

11:                                               ; preds = %8
  %12 = load ptr, ptr %3, align 8, !tbaa !25
  %13 = load i64, ptr %4, align 8, !tbaa !12
  call void @llvm.memset.p0.i64(ptr align 1 %12, i8 0, i64 %13, i1 false)
  br label %14

14:                                               ; preds = %7, %11, %8
  ret void
}

; Function Attrs: nounwind uwtable
define i32 @ma_bpf_node_init(ptr noundef %0, ptr noundef %1, ptr noundef %2, ptr noundef %3) #0 {
  %5 = alloca i32, align 4
  %6 = alloca ptr, align 8
  %7 = alloca ptr, align 8
  %8 = alloca ptr, align 8
  %9 = alloca ptr, align 8
  %10 = alloca i32, align 4
  %11 = alloca %struct.ma_node_config, align 8
  %12 = alloca i32, align 4
  %13 = alloca %struct.ma_node_config, align 8
  store ptr %0, ptr %6, align 8, !tbaa !1299
  store ptr %1, ptr %7, align 8, !tbaa !25
  store ptr %2, ptr %8, align 8, !tbaa !25
  store ptr %3, ptr %9, align 8, !tbaa !25
  call void @llvm.lifetime.start.p0(i64 4, ptr %10) #16
  call void @llvm.lifetime.start.p0(i64 40, ptr %11) #16
  %14 = load ptr, ptr %9, align 8, !tbaa !25
  %15 = icmp eq ptr %14, null
  br i1 %15, label %16, label %17

16:                                               ; preds = %4
  store i32 -2, ptr %5, align 4
  store i32 1, ptr %12, align 4
  br label %60

17:                                               ; preds = %4
  %18 = load ptr, ptr %9, align 8, !tbaa !25
  call void @ma_zero_memory_default(ptr noundef %18, i64 noundef 400)
  %19 = load ptr, ptr %7, align 8, !tbaa !25
  %20 = icmp eq ptr %19, null
  br i1 %20, label %21, label %22

21:                                               ; preds = %17
  store i32 -2, ptr %5, align 4
  store i32 1, ptr %12, align 4
  br label %60

22:                                               ; preds = %17
  %23 = load ptr, ptr %7, align 8, !tbaa !25
  %24 = getelementptr inbounds nuw %struct.ma_bpf_node_config, ptr %23, i32 0, i32 1
  %25 = getelementptr inbounds nuw %struct.ma_bpf_config, ptr %24, i32 0, i32 0
  %26 = load i32, ptr %25, align 8, !tbaa !1381
  %27 = icmp ne i32 %26, 5
  br i1 %27, label %28, label %29

28:                                               ; preds = %22
  store i32 -2, ptr %5, align 4
  store i32 1, ptr %12, align 4
  br label %60

29:                                               ; preds = %22
  %30 = load ptr, ptr %7, align 8, !tbaa !25
  %31 = getelementptr inbounds nuw %struct.ma_bpf_node_config, ptr %30, i32 0, i32 1
  %32 = load ptr, ptr %8, align 8, !tbaa !25
  %33 = load ptr, ptr %9, align 8, !tbaa !25
  %34 = getelementptr inbounds nuw %struct.ma_bpf_node, ptr %33, i32 0, i32 1
  %35 = call i32 @ma_bpf_init(ptr noundef %31, ptr noundef %32, ptr noundef %34)
  store i32 %35, ptr %10, align 4, !tbaa !8
  %36 = load i32, ptr %10, align 4, !tbaa !8
  %37 = icmp ne i32 %36, 0
  br i1 %37, label %38, label %40

38:                                               ; preds = %29
  %39 = load i32, ptr %10, align 4, !tbaa !8
  store i32 %39, ptr %5, align 4
  store i32 1, ptr %12, align 4
  br label %60

40:                                               ; preds = %29
  call void @llvm.lifetime.start.p0(i64 40, ptr %13) #16
  call void @ma_node_config_init(ptr dead_on_unwind writable sret(%struct.ma_node_config) align 8 %13)
  call void @llvm.memcpy.p0.p0.i64(ptr align 8 %11, ptr align 8 %13, i64 40, i1 false), !tbaa.struct !1306
  call void @llvm.lifetime.end.p0(i64 40, ptr %13) #16
  %41 = getelementptr inbounds nuw %struct.ma_node_config, ptr %11, i32 0, i32 0
  store ptr @g_ma_bpf_node_vtable, ptr %41, align 8, !tbaa !1307
  %42 = load ptr, ptr %7, align 8, !tbaa !25
  %43 = getelementptr inbounds nuw %struct.ma_bpf_node_config, ptr %42, i32 0, i32 1
  %44 = getelementptr inbounds nuw %struct.ma_bpf_config, ptr %43, i32 0, i32 1
  %45 = getelementptr inbounds nuw %struct.ma_node_config, ptr %11, i32 0, i32 4
  store ptr %44, ptr %45, align 8, !tbaa !1310
  %46 = load ptr, ptr %7, align 8, !tbaa !25
  %47 = getelementptr inbounds nuw %struct.ma_bpf_node_config, ptr %46, i32 0, i32 1
  %48 = getelementptr inbounds nuw %struct.ma_bpf_config, ptr %47, i32 0, i32 1
  %49 = getelementptr inbounds nuw %struct.ma_node_config, ptr %11, i32 0, i32 5
  store ptr %48, ptr %49, align 8, !tbaa !1309
  %50 = load ptr, ptr %6, align 8, !tbaa !1299
  %51 = load ptr, ptr %8, align 8, !tbaa !25
  %52 = load ptr, ptr %9, align 8, !tbaa !25
  %53 = call i32 @ma_node_init(ptr noundef %50, ptr noundef %11, ptr noundef %51, ptr noundef %52)
  store i32 %53, ptr %10, align 4, !tbaa !8
  %54 = load i32, ptr %10, align 4, !tbaa !8
  %55 = icmp ne i32 %54, 0
  br i1 %55, label %56, label %58

56:                                               ; preds = %40
  %57 = load i32, ptr %10, align 4, !tbaa !8
  store i32 %57, ptr %5, align 4
  store i32 1, ptr %12, align 4
  br label %60

58:                                               ; preds = %40
  %59 = load i32, ptr %10, align 4, !tbaa !8
  store i32 %59, ptr %5, align 4
  store i32 1, ptr %12, align 4
  br label %60

60:                                               ; preds = %58, %56, %38, %28, %21, %16
  call void @llvm.lifetime.end.p0(i64 40, ptr %11) #16
  call void @llvm.lifetime.end.p0(i64 4, ptr %10) #16
  %61 = load i32, ptr %5, align 4
  ret i32 %61
}