; Function Attrs: nounwind uwtable
define range(i32 -4, 1) i32 @ma_bpf_node_init(ptr noundef %0, ptr noundef %1, ptr noundef captures(address_is_null) %2, ptr noundef %3) local_unnamed_addr #7 {
  %5 = alloca %struct.ma_node_config, align 8
  call void @llvm.lifetime.start.p0(i64 40, ptr nonnull %5) #69
  %6 = icmp eq ptr %3, null
  br i1 %6, label %19, label %ma_zero_memory_default.exit

ma_zero_memory_default.exit:                      ; preds = %4
  tail call void @llvm.memset.p0.i64(ptr noundef nonnull align 1 dereferenceable(400) %3, i8 0, i64 400, i1 false)
  %7 = icmp eq ptr %1, null
  br i1 %7, label %19, label %8

8:                                                ; preds = %ma_zero_memory_default.exit
  %9 = getelementptr inbounds nuw i8, ptr %1, i64 40
  %10 = load i32, ptr %9, align 8, !tbaa !1734
  %.not = icmp eq i32 %10, 5
  br i1 %.not, label %11, label %19

11:                                               ; preds = %8
  %12 = getelementptr inbounds nuw i8, ptr %3, i64 360
  %13 = tail call i32 @ma_bpf_init(ptr noundef nonnull %9, ptr noundef %2, ptr noundef nonnull %12)
  %.not21 = icmp eq i32 %13, 0
  br i1 %.not21, label %14, label %19

14:                                               ; preds = %11
  %.sroa.7.0..sroa_idx = getelementptr inbounds nuw i8, ptr %5, i64 20
  store i32 0, ptr %.sroa.7.0..sroa_idx, align 4
  %.sroa.4.0..sroa_idx = getelementptr inbounds nuw i8, ptr %5, i64 8
  store i32 0, ptr %.sroa.4.0..sroa_idx, align 8, !tbaa !3
  %.sroa.5.0..sroa_idx = getelementptr inbounds nuw i8, ptr %5, i64 12
  store i32 255, ptr %.sroa.5.0..sroa_idx, align 4, !tbaa !3
  %.sroa.6.0..sroa_idx = getelementptr inbounds nuw i8, ptr %5, i64 16
  store i32 255, ptr %.sroa.6.0..sroa_idx, align 8, !tbaa !3
  store ptr @g_ma_bpf_node_vtable, ptr %5, align 8, !tbaa !1660
  %15 = getelementptr inbounds nuw i8, ptr %1, i64 44
  %16 = getelementptr inbounds nuw i8, ptr %5, i64 24
  store ptr %15, ptr %16, align 8, !tbaa !1663
  %17 = getelementptr inbounds nuw i8, ptr %5, i64 32
  store ptr %15, ptr %17, align 8, !tbaa !1662
  %18 = call i32 @ma_node_init(ptr noundef %0, ptr noundef nonnull %5, ptr noundef %2, ptr noundef nonnull %3)
  br label %19

19:                                               ; preds = %14, %11, %8, %ma_zero_memory_default.exit, %4
  %.0 = phi i32 [ -2, %4 ], [ -2, %ma_zero_memory_default.exit ], [ -2, %8 ], [ %13, %11 ], [ %18, %14 ]
  call void @llvm.lifetime.end.p0(i64 40, ptr nonnull %5) #69
  ret i32 %.0
}